; ModuleID = '49/930.c'
source_filename = "49/930.c"
target datalayout = "e-m:e-p270:32:32-p271:32:32-p272:64:64-i64:64-f80:128-n8:16:32:64-S128"
target triple = "x86_64-pc-linux-gnu"

@.str = private unnamed_addr constant [4 x i8] c"%s\0A\00", align 1

; Function Attrs: noinline nounwind uwtable
define dso_local i32 @main() #0 {
  %1 = alloca i32, align 4
  %2 = alloca [500 x i8], align 16
  %3 = alloca [500 x i8], align 16
  %4 = alloca i32, align 4
  %5 = alloca i32, align 4
  %6 = alloca i32, align 4
  %7 = alloca i32, align 4
  store i32 0, i32* %1, align 4
  %8 = bitcast [500 x i8]* %3 to i8*
  call void @llvm.memset.p0i8.i64(i8* align 16 %8, i8 0, i64 500, i1 false)
  %9 = bitcast i8* %8 to [500 x i8]*
  %10 = getelementptr inbounds [500 x i8], [500 x i8]* %9, i32 0, i32 0
  store i8 48, i8* %10, align 16
  %11 = getelementptr inbounds [500 x i8], [500 x i8]* %2, i64 0, i64 0
  %12 = call i32 (i8*, ...) bitcast (i32 (...)* @gets to i32 (i8*, ...)*)(i8* %11)
  %13 = getelementptr inbounds [500 x i8], [500 x i8]* %2, i64 0, i64 0
  %14 = call i64 @strlen(i8* %13) #4
  %15 = trunc i64 %14 to i32
  store i32 %15, i32* %7, align 4
  store i32 2, i32* %6, align 4
  br label %16

16:                                               ; preds = %60, %0
  %17 = load i32, i32* %6, align 4
  %18 = load i32, i32* %7, align 4
  %19 = icmp sle i32 %17, %18
  br i1 %19, label %20, label %63

20:                                               ; preds = %16
  store i32 0, i32* %4, align 4
  br label %21

21:                                               ; preds = %56, %20
  %22 = load i32, i32* %4, align 4
  %23 = load i32, i32* %7, align 4
  %24 = load i32, i32* %6, align 4
  %25 = sub nsw i32 %23, %24
  %26 = icmp sle i32 %22, %25
  br i1 %26, label %27, label %59

27:                                               ; preds = %21
  store i32 0, i32* %5, align 4
  br label %28

28:                                               ; preds = %42, %27
  %29 = load i32, i32* %5, align 4
  %30 = load i32, i32* %6, align 4
  %31 = icmp slt i32 %29, %30
  br i1 %31, label %32, label %45

32:                                               ; preds = %28
  %33 = load i32, i32* %4, align 4
  %34 = load i32, i32* %5, align 4
  %35 = add nsw i32 %33, %34
  %36 = sext i32 %35 to i64
  %37 = getelementptr inbounds [500 x i8], [500 x i8]* %2, i64 0, i64 %36
  %38 = load i8, i8* %37, align 1
  %39 = load i32, i32* %5, align 4
  %40 = sext i32 %39 to i64
  %41 = getelementptr inbounds [500 x i8], [500 x i8]* %3, i64 0, i64 %40
  store i8 %38, i8* %41, align 1
  br label %42

42:                                               ; preds = %32
  %43 = load i32, i32* %5, align 4
  %44 = add nsw i32 %43, 1
  store i32 %44, i32* %5, align 4
  br label %28

45:                                               ; preds = %28
  %46 = load i32, i32* %5, align 4
  %47 = sext i32 %46 to i64
  %48 = getelementptr inbounds [500 x i8], [500 x i8]* %3, i64 0, i64 %47
  store i8 0, i8* %48, align 1
  %49 = getelementptr inbounds [500 x i8], [500 x i8]* %3, i64 0, i64 0
  %50 = call i32 @ishuiwen(i8* %49)
  %51 = icmp ne i32 %50, 0
  br i1 %51, label %52, label %55

52:                                               ; preds = %45
  %53 = getelementptr inbounds [500 x i8], [500 x i8]* %3, i64 0, i64 0
  %54 = call i32 (i8*, ...) @printf(i8* getelementptr inbounds ([4 x i8], [4 x i8]* @.str, i64 0, i64 0), i8* %53)
  br label %55

55:                                               ; preds = %52, %45
  br label %56

56:                                               ; preds = %55
  %57 = load i32, i32* %4, align 4
  %58 = add nsw i32 %57, 1
  store i32 %58, i32* %4, align 4
  br label %21

59:                                               ; preds = %21
  br label %60

60:                                               ; preds = %59
  %61 = load i32, i32* %6, align 4
  %62 = add nsw i32 %61, 1
  store i32 %62, i32* %6, align 4
  br label %16

63:                                               ; preds = %16
  ret i32 0
}

; Function Attrs: argmemonly nounwind willreturn
declare void @llvm.memset.p0i8.i64(i8* nocapture writeonly, i8, i64, i1 immarg) #1

declare dso_local i32 @gets(...) #2

; Function Attrs: nounwind readonly
declare dso_local i64 @strlen(i8*) #3

; Function Attrs: noinline nounwind uwtable
define dso_local i32 @ishuiwen(i8* %0) #0 {
  %2 = alloca i32, align 4
  %3 = alloca i8*, align 8
  %4 = alloca i32, align 4
  %5 = alloca i32, align 4
  store i8* %0, i8** %3, align 8
  %6 = load i8*, i8** %3, align 8
  %7 = call i64 @strlen(i8* %6) #4
  %8 = trunc i64 %7 to i32
  store i32 %8, i32* %4, align 4
  store i32 0, i32* %5, align 4
  br label %9

9:                                                ; preds = %35, %1
  %10 = load i32, i32* %5, align 4
  %11 = load i32, i32* %4, align 4
  %12 = sdiv i32 %11, 2
  %13 = icmp slt i32 %10, %12
  br i1 %13, label %14, label %38

14:                                               ; preds = %9
  %15 = load i8*, i8** %3, align 8
  %16 = load i32, i32* %5, align 4
  %17 = sext i32 %16 to i64
  %18 = getelementptr inbounds i8, i8* %15, i64 %17
  %19 = load i8, i8* %18, align 1
  %20 = sext i8 %19 to i32
  %21 = load i8*, i8** %3, align 8
  %22 = load i32, i32* %4, align 4
  %23 = sext i32 %22 to i64
  %24 = getelementptr inbounds i8, i8* %21, i64 %23
  %25 = getelementptr inbounds i8, i8* %24, i64 -1
  %26 = load i32, i32* %5, align 4
  %27 = sext i32 %26 to i64
  %28 = sub i64 0, %27
  %29 = getelementptr inbounds i8, i8* %25, i64 %28
  %30 = load i8, i8* %29, align 1
  %31 = sext i8 %30 to i32
  %32 = icmp ne i32 %20, %31
  br i1 %32, label %33, label %34

33:                                               ; preds = %14
  store i32 0, i32* %2, align 4
  br label %39

34:                                               ; preds = %14
  br label %35

35:                                               ; preds = %34
  %36 = load i32, i32* %5, align 4
  %37 = add nsw i32 %36, 1
  store i32 %37, i32* %5, align 4
  br label %9

38:                                               ; preds = %9
  store i32 1, i32* %2, align 4
  br label %39

39:                                               ; preds = %38, %33
  %40 = load i32, i32* %2, align 4
  ret i32 %40
}

declare dso_local i32 @printf(i8*, ...) #2


!llvm.module.flags = !{!0}
!llvm.ident = !{!1}

!0 = !{i32 1, !"wchar_size", i32 4}
!1 = !{!"clang version 10.0.0-4ubuntu1 "}
